; Function Attrs: mustprogress uwtable
define internal fastcc void @_ZN11OpenImageIO6v3_1_0L8mad_implIffEEbRNS0_8ImageBufERKS2_S5_S5_NS0_3ROIEi(ptr noundef nonnull align 8 dereferenceable(16) %0, ptr noundef nonnull align 8 dereferenceable(16) %1, ptr noundef nonnull align 8 dereferenceable(16) %2, ptr noundef nonnull align 8 dereferenceable(16) %3, ptr noundef readonly byval(%"struct.OpenImageIO::v3_1_0::ROI") align 8 captures(none) %4, i32 noundef %5) unnamed_addr #5 personality ptr @__gxx_personality_v0 {
  %7 = alloca %"class.OpenImageIO::v3_1_0::paropt", align 8
  %8 = alloca %"class.std::function", align 8
  store i32 %5, ptr %7, align 8, !tbaa !61
  %9 = getelementptr inbounds nuw i8, ptr %7, i64 4
  store i16 0, ptr %9, align 4, !tbaa !66
  %10 = getelementptr inbounds nuw i8, ptr %7, i64 6
  store i16 1, ptr %10, align 2, !tbaa !67
  %11 = getelementptr inbounds nuw i8, ptr %7, i64 8
  store i64 1024, ptr %11, align 8, !tbaa !68
  %12 = getelementptr inbounds nuw i8, ptr %7, i64 16
  store ptr null, ptr %12, align 8, !tbaa !69
  %13 = getelementptr inbounds nuw i8, ptr %7, i64 24
  store i8 0, ptr %13, align 8, !tbaa !70
  %14 = getelementptr inbounds nuw i8, ptr %8, i64 16
  %15 = getelementptr inbounds nuw i8, ptr %8, i64 24
  %16 = getelementptr inbounds nuw i8, ptr %8, i64 8
  store i64 0, ptr %16, align 8
  %17 = tail call noalias noundef nonnull dereferenceable(32) ptr @_Znwm(i64 noundef 32) #29
  store ptr %1, ptr %17, align 16, !tbaa !18
  %.sroa.5.0..sroa_idx = getelementptr inbounds nuw i8, ptr %17, i64 8
  store ptr %2, ptr %.sroa.5.0..sroa_idx, align 8, !tbaa !18
  %.sroa.6.0..sroa_idx = getelementptr inbounds nuw i8, ptr %17, i64 16
  store ptr %3, ptr %.sroa.6.0..sroa_idx, align 16, !tbaa !18
  %.sroa.7.0..sroa_idx = getelementptr inbounds nuw i8, ptr %17, i64 24
  store ptr %0, ptr %.sroa.7.0..sroa_idx, align 8, !tbaa !18
  store ptr %17, ptr %8, align 8, !tbaa !71
  store ptr @_ZNSt17_Function_handlerIFvN11OpenImageIO6v3_1_03ROIEEZNS1_L8mad_implIffEEbRNS1_8ImageBufERKS5_S8_S8_S2_iEUlS2_E_E9_M_invokeERKSt9_Any_dataOS2_, ptr %15, align 8, !tbaa !72
  store ptr @_ZNSt17_Function_handlerIFvN11OpenImageIO6v3_1_03ROIEEZNS1_L8mad_implIffEEbRNS1_8ImageBufERKS5_S8_S8_S2_iEUlS2_E_E10_M_managerERSt9_Any_dataRKSB_St18_Manager_operation, ptr %14, align 8, !tbaa !75
  invoke void @_ZN11OpenImageIO6v3_1_012ImageBufAlgo14parallel_imageENS0_3ROIENS0_6paroptESt8functionIFvS2_EE(ptr noundef nonnull byval(%"struct.OpenImageIO::v3_1_0::ROI") align 8 %4, ptr noundef nonnull byval(%"class.OpenImageIO::v3_1_0::paropt") align 8 %7, ptr noundef nonnull %8)
          to label %18 unwind label %25

18:                                               ; preds = %6
  %19 = load ptr, ptr %14, align 8, !tbaa !75
  %.not.i = icmp eq ptr %19, null
  br i1 %.not.i, label %_ZNSt14_Function_baseD2Ev.exit, label %20

20:                                               ; preds = %18
  %21 = invoke noundef zeroext i1 %19(ptr noundef nonnull align 8 dereferenceable(32) %8, ptr noundef nonnull align 8 dereferenceable(32) %8, i32 noundef 3)
          to label %_ZNSt14_Function_baseD2Ev.exit unwind label %22

22:                                               ; preds = %20
  %23 = landingpad { ptr, i32 }
          catch ptr null
  %24 = extractvalue { ptr, i32 } %23, 0
  call void @__clang_call_terminate(ptr %24) #28
  unreachable

_ZNSt14_Function_baseD2Ev.exit:                   ; preds = %18, %20
  ret void

25:                                               ; preds = %6
  %26 = landingpad { ptr, i32 }
          cleanup
  %27 = load ptr, ptr %14, align 8, !tbaa !75
  %.not.i6 = icmp eq ptr %27, null
  br i1 %.not.i6, label %_ZNSt14_Function_baseD2Ev.exit7, label %28

28:                                               ; preds = %25
  %29 = invoke noundef zeroext i1 %27(ptr noundef nonnull align 8 dereferenceable(32) %8, ptr noundef nonnull align 8 dereferenceable(32) %8, i32 noundef 3)
          to label %_ZNSt14_Function_baseD2Ev.exit7 unwind label %30

30:                                               ; preds = %28
  %31 = landingpad { ptr, i32 }
          catch ptr null
  %32 = extractvalue { ptr, i32 } %31, 0
  call void @__clang_call_terminate(ptr %32) #28
  unreachable

_ZNSt14_Function_baseD2Ev.exit7:                  ; preds = %25, %28
  resume { ptr, i32 } %26
}